target datalayout = "e-m:e-p270:32:32-p271:32:32-p272:64:64-i64:64-i128:128-f80:128-n8:16:32:64-S128"
target triple = "x86_64-pc-linux-gnu"

%struct._header_field_info = type { ptr, ptr, i32, i32, ptr, i64, ptr, i32, i32, i32, i32, ptr }
%struct._e_guid_t = type { i32, i16, i16, [8 x i8] }
%struct._proto_node = type { ptr, ptr, ptr, ptr, ptr, ptr, ptr }
%struct.field_info = type { ptr, i32, i32, i32, i32, i32, i32, ptr, ptr, ptr, i32, i32 }

@hf_glusterfs_gfid = internal global i32 0, align 4
@.str = private unnamed_addr constant [26 x i8] c"<NAMELESS DICT STRUCTURE>\00", align 1
@ett_gluster_dict = internal global i32 0, align 4
@hf_gluster_dict_size = internal global i32 0, align 4
@.str.1 = private unnamed_addr constant [29 x i8] c" (%d bytes inc. RPC-roundup)\00", align 1
@.str.2 = private unnamed_addr constant [21 x i8] c", contains %d item%s\00", align 1
@.str.3 = private unnamed_addr constant [1 x i8] zeroinitializer, align 1
@.str.4 = private unnamed_addr constant [2 x i8] c"s\00", align 1
@hf_gluster_num_dict_items = internal global i32 0, align 4
@.str.5 = private unnamed_addr constant [9 x i8] c"gfid-req\00", align 1
@.str.6 = private unnamed_addr constant [15 x i8] c"transaction_id\00", align 1
@.str.7 = private unnamed_addr constant [16 x i8] c"originator_uuid\00", align 1
@.str.8 = private unnamed_addr constant [7 x i8] c"%s: %s\00", align 1
@.str.9 = private unnamed_addr constant [13 x i8] c"trusted.afr.\00", align 1
@hf_gluster_trusted_afr_key = internal global i32 0, align 4
@.str.10 = private unnamed_addr constant [19 x i8] c"%s: 0x%.8x%.8x%.8x\00", align 1
@hf_gluster_dict_value = internal global i32 0, align 4
@hf_gluster_rpc_roundup_bytes = internal global i32 0, align 4

; Function Attrs: inlinehint nounwind null_pointer_is_valid sspstrong uwtable
define internal void @proto_item_set_generated(ptr noundef %0) #3 {
  %2 = alloca ptr, align 8
  store ptr %0, ptr %2, align 8
  %3 = load ptr, ptr %2, align 8
  %4 = icmp ne ptr %3, null
  br i1 %4, label %5, label %24

5:                                                ; preds = %1
  br label %6

6:                                                ; preds = %5
  %7 = load ptr, ptr %2, align 8
  %8 = getelementptr inbounds nuw %struct._proto_node, ptr %7, i32 0, i32 5
  %9 = load ptr, ptr %8, align 8
  %10 = icmp ne ptr %9, null
  br i1 %10, label %11, label %22

11:                                               ; preds = %6
  %12 = load ptr, ptr %2, align 8
  %13 = getelementptr inbounds nuw %struct._proto_node, ptr %12, i32 0, i32 5
  %14 = load ptr, ptr %13, align 8
  %15 = getelementptr inbounds nuw %struct.field_info, ptr %14, i32 0, i32 6
  %16 = load i32, ptr %15, align 4
  %17 = or i32 %16, 2
  %18 = load ptr, ptr %2, align 8
  %19 = getelementptr inbounds nuw %struct._proto_node, ptr %18, i32 0, i32 5
  %20 = load ptr, ptr %19, align 8
  %21 = getelementptr inbounds nuw %struct.field_info, ptr %20, i32 0, i32 6
  store i32 %17, ptr %21, align 4
  br label %22

22:                                               ; preds = %11, %6
  br label %23

23:                                               ; preds = %22
  br label %24

24:                                               ; preds = %23, %1
  ret void
}

; Function Attrs: null_pointer_is_valid sspstrong uwtable
define hidden i32 @gluster_rpc_dissect_dict(ptr noundef %0, ptr noundef %1, i32 noundef %2, i32 noundef %3) #0 {
  %5 = alloca i32, align 4
  %6 = alloca ptr, align 8
  %7 = alloca ptr, align 8
  %8 = alloca i32, align 4
  %9 = alloca i32, align 4
  %10 = alloca ptr, align 8
  %11 = alloca ptr, align 8
  %12 = alloca ptr, align 8
  %13 = alloca i32, align 4
  %14 = alloca i32, align 4
  %15 = alloca i32, align 4
  %16 = alloca i32, align 4
  %17 = alloca i32, align 4
  %18 = alloca i32, align 4
  %19 = alloca i32, align 4
  %20 = alloca i32, align 4
  %21 = alloca ptr, align 8
  %22 = alloca ptr, align 8
  %23 = alloca ptr, align 8
  %24 = alloca ptr, align 8
  %25 = alloca ptr, align 8
  %26 = alloca i32, align 4
  %27 = alloca ptr, align 8
  %28 = alloca %struct._e_guid_t, align 4
  store ptr %0, ptr %6, align 8
  store ptr %1, ptr %7, align 8
  store i32 %2, ptr %8, align 4
  store i32 %3, ptr %9, align 4
  call void @llvm.lifetime.start.p0(i64 8, ptr %10) #5
  call void @llvm.lifetime.start.p0(i64 8, ptr %11) #5
  call void @llvm.lifetime.start.p0(i64 8, ptr %12) #5
  call void @llvm.lifetime.start.p0(i64 4, ptr %13) #5
  call void @llvm.lifetime.start.p0(i64 4, ptr %14) #5
  call void @llvm.lifetime.start.p0(i64 4, ptr %15) #5
  call void @llvm.lifetime.start.p0(i64 4, ptr %16) #5
  call void @llvm.lifetime.start.p0(i64 4, ptr %17) #5
  call void @llvm.lifetime.start.p0(i64 4, ptr %18) #5
  call void @llvm.lifetime.start.p0(i64 4, ptr %19) #5
  call void @llvm.lifetime.start.p0(i64 4, ptr %20) #5
  call void @llvm.lifetime.start.p0(i64 8, ptr %21) #5
  call void @llvm.lifetime.start.p0(i64 8, ptr %22) #5
  call void @llvm.lifetime.start.p0(i64 8, ptr %23) #5
  call void @llvm.lifetime.start.p0(i64 8, ptr %24) #5
  store ptr null, ptr %24, align 8
  %29 = load i32, ptr %8, align 4
  %30 = icmp sge i32 %29, 0
  br i1 %30, label %31, label %37

31:                                               ; preds = %4
  call void @llvm.lifetime.start.p0(i64 8, ptr %25) #5
  %32 = load i32, ptr %8, align 4
  %33 = call ptr @proto_registrar_get_nth(i32 noundef %32)
  store ptr %33, ptr %25, align 8
  %34 = load ptr, ptr %25, align 8
  %35 = getelementptr inbounds nuw %struct._header_field_info, ptr %34, i32 0, i32 0
  %36 = load ptr, ptr %35, align 8
  store ptr %36, ptr %12, align 8
  call void @llvm.lifetime.end.p0(i64 8, ptr %25) #5
  br label %38

37:                                               ; preds = %4
  store ptr @.str, ptr %12, align 8
  br label %38

38:                                               ; preds = %37, %31
  %39 = load i32, ptr %9, align 4
  store i32 %39, ptr %19, align 4
  %40 = load ptr, ptr %6, align 8
  %41 = load ptr, ptr %7, align 8
  %42 = load i32, ptr %9, align 4
  %43 = load i32, ptr @ett_gluster_dict, align 4
  %44 = load ptr, ptr %12, align 8
  %45 = call ptr @proto_tree_add_subtree(ptr noundef %40, ptr noundef %41, i32 noundef %42, i32 noundef -1, i32 noundef %43, ptr noundef %21, ptr noundef %44)
  store ptr %45, ptr %23, align 8
  %46 = load ptr, ptr %7, align 8
  %47 = load i32, ptr %9, align 4
  %48 = call i32 @tvb_get_ntohl(ptr noundef %46, i32 noundef %47)
  store i32 %48, ptr %18, align 4
  %49 = load i32, ptr %18, align 4
  %50 = call i32 @rpc_roundup(i32 noundef %49)
  %51 = load i32, ptr %18, align 4
  %52 = sub i32 %50, %51
  store i32 %52, ptr %13, align 4
  %53 = load ptr, ptr %23, align 8
  %54 = load i32, ptr @hf_gluster_dict_size, align 4
  %55 = load ptr, ptr %7, align 8
  %56 = load i32, ptr %9, align 4
  %57 = call ptr @proto_tree_add_item_ret_uint(ptr noundef %53, i32 noundef %54, ptr noundef %55, i32 noundef %56, i32 noundef 4, i32 noundef 0, ptr noundef %18)
  store ptr %57, ptr %22, align 8
  %58 = load ptr, ptr %22, align 8
  %59 = load i32, ptr %18, align 4
  %60 = call i32 @rpc_roundup(i32 noundef %59)
  call void (ptr, ptr, ...) @proto_item_append_text(ptr noundef %58, ptr noundef @.str.1, i32 noundef %60)
  %61 = load ptr, ptr %22, align 8
  call void @proto_item_set_generated(ptr noundef %61)
  %62 = load i32, ptr %9, align 4
  %63 = add i32 %62, 4
  store i32 %63, ptr %9, align 4
  %64 = load i32, ptr %18, align 4
  %65 = icmp eq i32 %64, 0
  br i1 %65, label %66, label %67

66:                                               ; preds = %38
  store i32 0, ptr %17, align 4
  br label %71

67:                                               ; preds = %38
  %68 = load ptr, ptr %7, align 8
  %69 = load i32, ptr %9, align 4
  %70 = call i32 @tvb_get_ntohl(ptr noundef %68, i32 noundef %69)
  store i32 %70, ptr %17, align 4
  br label %71

71:                                               ; preds = %67, %66
  %72 = load ptr, ptr %21, align 8
  %73 = load i32, ptr %17, align 4
  %74 = load i32, ptr %17, align 4
  %75 = icmp eq i32 %74, 1
  %76 = select i1 %75, ptr @.str.3, ptr @.str.4
  call void (ptr, ptr, ...) @proto_item_append_text(ptr noundef %72, ptr noundef @.str.2, i32 noundef %73, ptr noundef %76)
  %77 = load i32, ptr %18, align 4
  %78 = icmp eq i32 %77, 0
  br i1 %78, label %79, label %81

79:                                               ; preds = %71
  %80 = load i32, ptr %9, align 4
  store i32 %80, ptr %5, align 4
  store i32 1, ptr %26, align 4
  br label %208

81:                                               ; preds = %71
  %82 = load ptr, ptr %23, align 8
  %83 = load i32, ptr @hf_gluster_num_dict_items, align 4
  %84 = load ptr, ptr %7, align 8
  %85 = load i32, ptr %9, align 4
  %86 = load i32, ptr %17, align 4
  %87 = call ptr @proto_tree_add_uint(ptr noundef %82, i32 noundef %83, ptr noundef %84, i32 noundef %85, i32 noundef 4, i32 noundef %86)
  %88 = load i32, ptr %9, align 4
  %89 = add i32 %88, 4
  store i32 %89, ptr %9, align 4
  store i32 0, ptr %16, align 4
  br label %90

90:                                               ; preds = %186, %81
  %91 = load i32, ptr %16, align 4
  %92 = load i32, ptr %17, align 4
  %93 = icmp ult i32 %91, %92
  br i1 %93, label %94, label %189

94:                                               ; preds = %90
  %95 = load i32, ptr %9, align 4
  %96 = add i32 %95, 4
  store i32 %96, ptr %9, align 4
  %97 = load ptr, ptr %7, align 8
  %98 = load i32, ptr %9, align 4
  %99 = call i32 @tvb_get_ntohl(ptr noundef %97, i32 noundef %98)
  store i32 %99, ptr %14, align 4
  %100 = load i32, ptr %9, align 4
  %101 = add i32 %100, 4
  store i32 %101, ptr %9, align 4
  %102 = call ptr @wmem_packet_scope()
  %103 = load ptr, ptr %7, align 8
  %104 = load i32, ptr %9, align 4
  %105 = call ptr @tvb_get_stringz_enc(ptr noundef %102, ptr noundef %103, i32 noundef %104, ptr noundef %15, i32 noundef 0)
  store ptr %105, ptr %10, align 8
  %106 = load i32, ptr %9, align 4
  store i32 %106, ptr %20, align 4
  %107 = load i32, ptr %15, align 4
  %108 = load i32, ptr %9, align 4
  %109 = add i32 %108, %107
  store i32 %109, ptr %9, align 4
  %110 = load i32, ptr %14, align 4
  %111 = icmp eq i32 %110, 16
  br i1 %111, label %112, label %136

112:                                              ; preds = %94
  %113 = load ptr, ptr %10, align 8
  %114 = call i32 @strncmp(ptr noundef @.str.5, ptr noundef %113, i64 noundef 8) #6
  %115 = icmp ne i32 %114, 0
  br i1 %115, label %116, label %124

116:                                              ; preds = %112
  %117 = load ptr, ptr %10, align 8
  %118 = call i32 @strncmp(ptr noundef @.str.6, ptr noundef %117, i64 noundef 14) #6
  %119 = icmp ne i32 %118, 0
  br i1 %119, label %120, label %124

120:                                              ; preds = %116
  %121 = load ptr, ptr %10, align 8
  %122 = call i32 @strncmp(ptr noundef @.str.7, ptr noundef %121, i64 noundef 15) #6
  %123 = icmp ne i32 %122, 0
  br i1 %123, label %136, label %124

124:                                              ; preds = %120, %116, %112
  call void @llvm.lifetime.start.p0(i64 8, ptr %27) #5
  call void @llvm.lifetime.start.p0(i64 16, ptr %28) #5
  %125 = load ptr, ptr %7, align 8
  %126 = load i32, ptr %9, align 4
  call void @tvb_get_ntohguid(ptr noundef %125, i32 noundef %126, ptr noundef %28)
  %127 = call ptr @wmem_packet_scope()
  %128 = call ptr @guid_to_str(ptr noundef %127, ptr noundef %28)
  store ptr %128, ptr %27, align 8
  %129 = load ptr, ptr %23, align 8
  %130 = load i32, ptr @hf_glusterfs_gfid, align 4
  %131 = load ptr, ptr %7, align 8
  %132 = load i32, ptr %9, align 4
  %133 = load ptr, ptr %10, align 8
  %134 = load ptr, ptr %27, align 8
  %135 = call ptr (ptr, i32, ptr, i32, i32, ptr, ptr, ...) @proto_tree_add_guid_format(ptr noundef %129, i32 noundef %130, ptr noundef %131, i32 noundef %132, i32 noundef 16, ptr noundef %28, ptr noundef @.str.8, ptr noundef %133, ptr noundef %134)
  store ptr %135, ptr %24, align 8
  call void @llvm.lifetime.end.p0(i64 16, ptr %28) #5
  call void @llvm.lifetime.end.p0(i64 8, ptr %27) #5
  br label %178

136:                                              ; preds = %120, %94
  %137 = load i32, ptr %14, align 4
  %138 = icmp eq i32 %137, 12
  br i1 %138, label %139, label %162

139:                                              ; preds = %136
  %140 = load ptr, ptr %10, align 8
  %141 = call i32 @strncmp(ptr noundef @.str.9, ptr noundef %140, i64 noundef 12) #6
  %142 = icmp ne i32 %141, 0
  br i1 %142, label %162, label %143

143:                                              ; preds = %139
  %144 = load ptr, ptr %23, align 8
  %145 = load i32, ptr @hf_gluster_trusted_afr_key, align 4
  %146 = load ptr, ptr %7, align 8
  %147 = load i32, ptr %9, align 4
  %148 = load ptr, ptr %10, align 8
  %149 = load ptr, ptr %7, align 8
  %150 = load i32, ptr %9, align 4
  %151 = add i32 %150, 0
  %152 = call i32 @tvb_get_letohl(ptr noundef %149, i32 noundef %151)
  %153 = load ptr, ptr %7, align 8
  %154 = load i32, ptr %9, align 4
  %155 = add i32 %154, 4
  %156 = call i32 @tvb_get_letohl(ptr noundef %153, i32 noundef %155)
  %157 = load ptr, ptr %7, align 8
  %158 = load i32, ptr %9, align 4
  %159 = add i32 %158, 8
  %160 = call i32 @tvb_get_letohl(ptr noundef %157, i32 noundef %159)
  %161 = call ptr (ptr, i32, ptr, i32, i32, ptr, ptr, ...) @proto_tree_add_bytes_format(ptr noundef %144, i32 noundef %145, ptr noundef %146, i32 noundef %147, i32 noundef 12, ptr noundef null, ptr noundef @.str.10, ptr noundef %148, i32 noundef %152, i32 noundef %156, i32 noundef %160)
  store ptr %161, ptr %24, align 8
  br label %177

162:                                              ; preds = %139, %136
  %163 = call ptr @wmem_packet_scope()
  %164 = load ptr, ptr %7, align 8
  %165 = load i32, ptr %9, align 4
  %166 = load i32, ptr %14, align 4
  %167 = call ptr @tvb_get_string_enc(ptr noundef %163, ptr noundef %164, i32 noundef %165, i32 noundef %166, i32 noundef 0)
  store ptr %167, ptr %11, align 8
  %168 = load ptr, ptr %23, align 8
  %169 = load i32, ptr @hf_gluster_dict_value, align 4
  %170 = load ptr, ptr %7, align 8
  %171 = load i32, ptr %9, align 4
  %172 = load i32, ptr %14, align 4
  %173 = load ptr, ptr %11, align 8
  %174 = load ptr, ptr %10, align 8
  %175 = load ptr, ptr %11, align 8
  %176 = call ptr (ptr, i32, ptr, i32, i32, ptr, ptr, ...) @proto_tree_add_string_format(ptr noundef %168, i32 noundef %169, ptr noundef %170, i32 noundef %171, i32 noundef %172, ptr noundef %173, ptr noundef @.str.8, ptr noundef %174, ptr noundef %175)
  store ptr %176, ptr %24, align 8
  br label %177

177:                                              ; preds = %162, %143
  br label %178

178:                                              ; preds = %177, %124
  %179 = load i32, ptr %14, align 4
  %180 = load i32, ptr %9, align 4
  %181 = add i32 %180, %179
  store i32 %181, ptr %9, align 4
  %182 = load ptr, ptr %24, align 8
  %183 = load i32, ptr %9, align 4
  %184 = load i32, ptr %20, align 4
  %185 = sub i32 %183, %184
  call void @proto_item_set_len(ptr noundef %182, i32 noundef %185)
  br label %186

186:                                              ; preds = %178
  %187 = load i32, ptr %16, align 4
  %188 = add i32 %187, 1
  store i32 %188, ptr %16, align 4
  br label %90, !llvm.loop !6

189:                                              ; preds = %90
  %190 = load i32, ptr %13, align 4
  %191 = icmp ne i32 %190, 0
  br i1 %191, label %192, label %202

192:                                              ; preds = %189
  %193 = load ptr, ptr %23, align 8
  %194 = load i32, ptr @hf_gluster_rpc_roundup_bytes, align 4
  %195 = load ptr, ptr %7, align 8
  %196 = load i32, ptr %9, align 4
  %197 = call ptr @proto_tree_add_item(ptr noundef %193, i32 noundef %194, ptr noundef %195, i32 noundef %196, i32 noundef -1, i32 noundef 0)
  store ptr %197, ptr %22, align 8
  %198 = load ptr, ptr %22, align 8
  call void @proto_item_set_generated(ptr noundef %198)
  %199 = load i32, ptr %13, align 4
  %200 = load i32, ptr %9, align 4
  %201 = add i32 %200, %199
  store i32 %201, ptr %9, align 4
  br label %202

202:                                              ; preds = %192, %189
  %203 = load ptr, ptr %21, align 8
  %204 = load i32, ptr %9, align 4
  %205 = load i32, ptr %19, align 4
  %206 = sub i32 %204, %205
  call void @proto_item_set_len(ptr noundef %203, i32 noundef %206)
  %207 = load i32, ptr %9, align 4
  store i32 %207, ptr %5, align 4
  store i32 1, ptr %26, align 4
  br label %208

208:                                              ; preds = %202, %79
  call void @llvm.lifetime.end.p0(i64 8, ptr %24) #5
  call void @llvm.lifetime.end.p0(i64 8, ptr %23) #5
  call void @llvm.lifetime.end.p0(i64 8, ptr %22) #5
  call void @llvm.lifetime.end.p0(i64 8, ptr %21) #5
  call void @llvm.lifetime.end.p0(i64 4, ptr %20) #5
  call void @llvm.lifetime.end.p0(i64 4, ptr %19) #5
  call void @llvm.lifetime.end.p0(i64 4, ptr %18) #5
  call void @llvm.lifetime.end.p0(i64 4, ptr %17) #5
  call void @llvm.lifetime.end.p0(i64 4, ptr %16) #5
  call void @llvm.lifetime.end.p0(i64 4, ptr %15) #5
  call void @llvm.lifetime.end.p0(i64 4, ptr %14) #5
  call void @llvm.lifetime.end.p0(i64 4, ptr %13) #5
  call void @llvm.lifetime.end.p0(i64 8, ptr %12) #5
  call void @llvm.lifetime.end.p0(i64 8, ptr %11) #5
  call void @llvm.lifetime.end.p0(i64 8, ptr %10) #5
  %209 = load i32, ptr %5, align 4
  ret i32 %209
}