; Function Attrs: null_pointer_is_valid sspstrong uwtable
define hidden i32 @gluster_rpc_dissect_dict(ptr noundef %0, ptr noundef %1, i32 noundef %2, i32 noundef %3) local_unnamed_addr #0 {
  %5 = alloca i32, align 4
  %6 = alloca i32, align 4
  %7 = alloca ptr, align 8
  %8 = alloca %struct._e_guid_t, align 4
  call void @llvm.lifetime.start.p0(i64 4, ptr nonnull %5) #4
  call void @llvm.lifetime.start.p0(i64 4, ptr nonnull %6) #4
  call void @llvm.lifetime.start.p0(i64 8, ptr nonnull %7) #4
  %9 = icmp sgt i32 %2, -1
  br i1 %9, label %10, label %13

10:                                               ; preds = %4
  %11 = tail call ptr @proto_registrar_get_nth(i32 noundef %2)
  %12 = load ptr, ptr %11, align 8
  br label %13

13:                                               ; preds = %4, %10
  %.087 = phi ptr [ %12, %10 ], [ @.str, %4 ]
  %14 = load i32, ptr @ett_gluster_dict, align 4
  %15 = call ptr @proto_tree_add_subtree(ptr noundef %0, ptr noundef %1, i32 noundef %3, i32 noundef -1, i32 noundef %14, ptr noundef nonnull %7, ptr noundef %.087)
  %16 = call i32 @tvb_get_ntohl(ptr noundef %1, i32 noundef %3)
  store i32 %16, ptr %6, align 4
  %17 = call i32 @rpc_roundup(i32 noundef %16)
  %18 = sub i32 %17, %16
  %19 = load i32, ptr @hf_gluster_dict_size, align 4
  %20 = call ptr @proto_tree_add_item_ret_uint(ptr noundef %15, i32 noundef %19, ptr noundef %1, i32 noundef %3, i32 noundef 4, i32 noundef 0, ptr noundef nonnull %6)
  %21 = load i32, ptr %6, align 4
  %22 = call i32 @rpc_roundup(i32 noundef %21)
  call void (ptr, ptr, ...) @proto_item_append_text(ptr noundef %20, ptr noundef nonnull @.str.1, i32 noundef %22)
  %.not.i = icmp eq ptr %20, null
  br i1 %.not.i, label %proto_item_set_generated.exit, label %23

23:                                               ; preds = %13
  %24 = getelementptr inbounds nuw i8, ptr %20, i64 40
  %25 = load ptr, ptr %24, align 8
  %.not5.i = icmp eq ptr %25, null
  br i1 %.not5.i, label %proto_item_set_generated.exit, label %26

26:                                               ; preds = %23
  %27 = getelementptr inbounds nuw i8, ptr %25, i64 28
  %28 = load i32, ptr %27, align 4
  %29 = or i32 %28, 2
  store i32 %29, ptr %27, align 4
  br label %proto_item_set_generated.exit

proto_item_set_generated.exit:                    ; preds = %13, %23, %26
  %30 = add i32 %3, 4
  %31 = load i32, ptr %6, align 4
  %32 = icmp eq i32 %31, 0
  br i1 %32, label %.thread, label %33

33:                                               ; preds = %proto_item_set_generated.exit
  %34 = call i32 @tvb_get_ntohl(ptr noundef %1, i32 noundef %30)
  %35 = icmp eq i32 %34, 1
  %spec.select101 = select i1 %35, ptr @.str.3, ptr @.str.4
  br label %.thread

.thread:                                          ; preds = %proto_item_set_generated.exit, %33
  %.089100 = phi i32 [ %34, %33 ], [ 0, %proto_item_set_generated.exit ]
  %36 = phi ptr [ %spec.select101, %33 ], [ @.str.4, %proto_item_set_generated.exit ]
  %37 = load ptr, ptr %7, align 8
  call void (ptr, ptr, ...) @proto_item_append_text(ptr noundef %37, ptr noundef nonnull @.str.2, i32 noundef %.089100, ptr noundef nonnull %36)
  %38 = load i32, ptr %6, align 4
  %39 = icmp eq i32 %38, 0
  br i1 %39, label %95, label %40

40:                                               ; preds = %.thread
  %41 = load i32, ptr @hf_gluster_num_dict_items, align 4
  %42 = call ptr @proto_tree_add_uint(ptr noundef %15, i32 noundef %41, ptr noundef %1, i32 noundef %30, i32 noundef 4, i32 noundef %.089100)
  %43 = add i32 %3, 8
  %.not104 = icmp eq i32 %.089100, 0
  br i1 %.not104, label %._crit_edge, label %.lr.ph

.lr.ph:                                           ; preds = %40, %77
  %.085103 = phi i32 [ %78, %77 ], [ %43, %40 ]
  %.088102 = phi i32 [ %80, %77 ], [ 0, %40 ]
  %44 = add i32 %.085103, 4
  %45 = call i32 @tvb_get_ntohl(ptr noundef %1, i32 noundef %44)
  %46 = add i32 %.085103, 8
  %47 = call ptr @wmem_packet_scope()
  %48 = call ptr @tvb_get_stringz_enc(ptr noundef %47, ptr noundef %1, i32 noundef %46, ptr noundef nonnull %5, i32 noundef 0)
  %49 = load i32, ptr %5, align 4
  %50 = add i32 %49, %46
  switch i32 %45, label %72 [
    i32 16, label %51
    i32 12, label %62
  ]

51:                                               ; preds = %.lr.ph
  %52 = call i32 @strncmp(ptr noundef nonnull dereferenceable(9) @.str.5, ptr noundef %48, i64 noundef 8) #5
  %.not92 = icmp eq i32 %52, 0
  br i1 %.not92, label %57, label %53

53:                                               ; preds = %51
  %54 = call i32 @strncmp(ptr noundef nonnull dereferenceable(15) @.str.6, ptr noundef %48, i64 noundef 14) #5
  %.not93 = icmp eq i32 %54, 0
  br i1 %.not93, label %57, label %55

55:                                               ; preds = %53
  %56 = call i32 @strncmp(ptr noundef nonnull dereferenceable(16) @.str.7, ptr noundef %48, i64 noundef 15) #5
  %.not94 = icmp eq i32 %56, 0
  br i1 %.not94, label %57, label %72

57:                                               ; preds = %55, %53, %51
  call void @llvm.lifetime.start.p0(i64 16, ptr nonnull %8) #4
  call void @tvb_get_ntohguid(ptr noundef %1, i32 noundef %50, ptr noundef nonnull %8)
  %58 = call ptr @wmem_packet_scope()
  %59 = call ptr @guid_to_str(ptr noundef %58, ptr noundef nonnull %8)
  %60 = load i32, ptr @hf_glusterfs_gfid, align 4
  %61 = call ptr (ptr, i32, ptr, i32, i32, ptr, ptr, ...) @proto_tree_add_guid_format(ptr noundef %15, i32 noundef %60, ptr noundef %1, i32 noundef %50, i32 noundef 16, ptr noundef nonnull %8, ptr noundef nonnull @.str.8, ptr noundef %48, ptr noundef %59)
  call void @llvm.lifetime.end.p0(i64 16, ptr nonnull %8) #4
  br label %77

62:                                               ; preds = %.lr.ph
  %63 = call i32 @strncmp(ptr noundef nonnull dereferenceable(13) @.str.9, ptr noundef %48, i64 noundef 12) #5
  %.not95 = icmp eq i32 %63, 0
  br i1 %.not95, label %64, label %72

64:                                               ; preds = %62
  %65 = load i32, ptr @hf_gluster_trusted_afr_key, align 4
  %66 = call i32 @tvb_get_letohl(ptr noundef %1, i32 noundef %50)
  %67 = add i32 %50, 4
  %68 = call i32 @tvb_get_letohl(ptr noundef %1, i32 noundef %67)
  %69 = add i32 %50, 8
  %70 = call i32 @tvb_get_letohl(ptr noundef %1, i32 noundef %69)
  %71 = call ptr (ptr, i32, ptr, i32, i32, ptr, ptr, ...) @proto_tree_add_bytes_format(ptr noundef %15, i32 noundef %65, ptr noundef %1, i32 noundef %50, i32 noundef 12, ptr noundef null, ptr noundef nonnull @.str.10, ptr noundef %48, i32 noundef %66, i32 noundef %68, i32 noundef %70)
  br label %77

72:                                               ; preds = %55, %.lr.ph, %62
  %73 = call ptr @wmem_packet_scope()
  %74 = call ptr @tvb_get_string_enc(ptr noundef %73, ptr noundef %1, i32 noundef %50, i32 noundef %45, i32 noundef 0)
  %75 = load i32, ptr @hf_gluster_dict_value, align 4
  %76 = call ptr (ptr, i32, ptr, i32, i32, ptr, ptr, ...) @proto_tree_add_string_format(ptr noundef %15, i32 noundef %75, ptr noundef %1, i32 noundef %50, i32 noundef %45, ptr noundef %74, ptr noundef nonnull @.str.8, ptr noundef %48, ptr noundef %74)
  br label %77

77:                                               ; preds = %64, %72, %57
  %.086 = phi ptr [ %76, %72 ], [ %71, %64 ], [ %61, %57 ]
  %78 = add i32 %50, %45
  %79 = sub i32 %78, %46
  call void @proto_item_set_len(ptr noundef %.086, i32 noundef %79)
  %80 = add nuw i32 %.088102, 1
  %exitcond.not = icmp eq i32 %80, %.089100
  br i1 %exitcond.not, label %._crit_edge, label %.lr.ph, !llvm.loop !6

._crit_edge:                                      ; preds = %77, %40
  %.085.lcssa = phi i32 [ %43, %40 ], [ %78, %77 ]
  %.not = icmp eq i32 %17, %16
  br i1 %.not, label %92, label %81

81:                                               ; preds = %._crit_edge
  %82 = load i32, ptr @hf_gluster_rpc_roundup_bytes, align 4
  %83 = call ptr @proto_tree_add_item(ptr noundef %15, i32 noundef %82, ptr noundef %1, i32 noundef %.085.lcssa, i32 noundef -1, i32 noundef 0)
  %.not.i96 = icmp eq ptr %83, null
  br i1 %.not.i96, label %proto_item_set_generated.exit98, label %84

84:                                               ; preds = %81
  %85 = getelementptr inbounds nuw i8, ptr %83, i64 40
  %86 = load ptr, ptr %85, align 8
  %.not5.i97 = icmp eq ptr %86, null
  br i1 %.not5.i97, label %proto_item_set_generated.exit98, label %87

87:                                               ; preds = %84
  %88 = getelementptr inbounds nuw i8, ptr %86, i64 28
  %89 = load i32, ptr %88, align 4
  %90 = or i32 %89, 2
  store i32 %90, ptr %88, align 4
  br label %proto_item_set_generated.exit98

proto_item_set_generated.exit98:                  ; preds = %81, %84, %87
  %91 = add i32 %18, %.085.lcssa
  br label %92

92:                                               ; preds = %proto_item_set_generated.exit98, %._crit_edge
  %.1 = phi i32 [ %91, %proto_item_set_generated.exit98 ], [ %.085.lcssa, %._crit_edge ]
  %93 = load ptr, ptr %7, align 8
  %94 = sub i32 %.1, %3
  call void @proto_item_set_len(ptr noundef %93, i32 noundef %94)
  br label %95

95:                                               ; preds = %.thread, %92
  %.0 = phi i32 [ %.1, %92 ], [ %30, %.thread ]
  call void @llvm.lifetime.end.p0(i64 8, ptr nonnull %7) #4
  call void @llvm.lifetime.end.p0(i64 4, ptr nonnull %6) #4
  call void @llvm.lifetime.end.p0(i64 4, ptr nonnull %5) #4
  ret i32 %.0
}